; Function Attrs: mustprogress nounwind uwtable
define hidden void @_ZN8facebook4yoga3logEPKNS0_6ConfigENS0_8LogLevelEPKcz(ptr noundef %0, i8 noundef zeroext %1, ptr noundef %2, ...) local_unnamed_addr #5 personality ptr @__gxx_personality_v0 {
  %4 = alloca [1 x %struct.__va_list_tag], align 16
  call void @llvm.lifetime.start.p0(i64 24, ptr nonnull %4) #10
  call void @llvm.va_start.p0(ptr nonnull %4)
  %5 = icmp eq ptr %0, null
  br i1 %5, label %6, label %9

6:                                                ; preds = %3
  %switch.selectcmp.case1.i.i.i = icmp eq i8 %1, 0
  %switch.selectcmp.case2.i.i.i = icmp eq i8 %1, 5
  %switch.selectcmp.i.i.i = or i1 %switch.selectcmp.case1.i.i.i, %switch.selectcmp.case2.i.i.i
  %stderr.val.i.i.i = load ptr, ptr @stderr, align 8
  %stdout.val.i.i.i = load ptr, ptr @stdout, align 8
  %7 = select i1 %switch.selectcmp.i.i.i, ptr %stderr.val.i.i.i, ptr %stdout.val.i.i.i
  %8 = call noundef i32 @vfprintf(ptr noundef %7, ptr noundef readonly %2, ptr noundef nonnull %4) #10
  br label %_ZN8facebook4yoga12_GLOBAL__N_14vlogEPKNS0_6ConfigEPKNS0_4NodeENS0_8LogLevelEPKcP13__va_list_tag.exit

9:                                                ; preds = %3
  invoke void @_ZNK8facebook4yoga6Config3logEPKNS0_4NodeENS0_8LogLevelEPKcP13__va_list_tag(ptr noundef nonnull align 8 dereferenceable(48) %0, ptr noundef null, i8 noundef zeroext %1, ptr noundef %2, ptr noundef nonnull %4)
          to label %_ZN8facebook4yoga12_GLOBAL__N_14vlogEPKNS0_6ConfigEPKNS0_4NodeENS0_8LogLevelEPKcP13__va_list_tag.exit unwind label %10

_ZN8facebook4yoga12_GLOBAL__N_14vlogEPKNS0_6ConfigEPKNS0_4NodeENS0_8LogLevelEPKcP13__va_list_tag.exit: ; preds = %6, %9
  call void @llvm.va_end.p0(ptr nonnull %4)
  call void @llvm.lifetime.end.p0(i64 24, ptr nonnull %4) #10
  ret void

10:                                               ; preds = %9
  %11 = landingpad { ptr, i32 }
          catch ptr null
  %12 = extractvalue { ptr, i32 } %11, 0
  call void @__clang_call_terminate(ptr %12) #11
  unreachable
}